target datalayout = "e-m:e-p270:32:32-p271:32:32-p272:64:64-i64:64-i128:128-f80:128-n8:16:32:64-S128"
target triple = "x86_64-unknown-linux-gnu"

%"struct.std::_Rb_tree_key_compare" = type { %"struct.std::less" }
%"struct.std::less" = type { i8 }
%"struct.std::_Rb_tree_header" = type { %"struct.std::_Rb_tree_node_base", i64 }
%"struct.std::_Rb_tree_node_base" = type { i32, ptr, ptr, ptr }
%"class.OpenColorIO_v2_4dev::FormatRegistry" = type { %"class.std::map", %"class.std::map.7", %"class.std::vector", %"class.std::vector.15", %"class.std::vector.15", %"class.std::vector.15", %"class.std::vector.15", %"class.std::vector.15", %"class.std::vector.15" }
%"class.std::map" = type { %"class.std::_Rb_tree" }
%"class.std::_Rb_tree" = type { %"struct.std::_Rb_tree<std::__cxx11::basic_string<char>, std::pair<const std::__cxx11::basic_string<char>, OpenColorIO_v2_4dev::FileFormat *>, std::_Select1st<std::pair<const std::__cxx11::basic_string<char>, OpenColorIO_v2_4dev::FileFormat *>>, std::less<std::__cxx11::basic_string<char>>>::_Rb_tree_impl" }
%"struct.std::_Rb_tree<std::__cxx11::basic_string<char>, std::pair<const std::__cxx11::basic_string<char>, OpenColorIO_v2_4dev::FileFormat *>, std::_Select1st<std::pair<const std::__cxx11::basic_string<char>, OpenColorIO_v2_4dev::FileFormat *>>, std::less<std::__cxx11::basic_string<char>>>::_Rb_tree_impl" = type { %"struct.std::_Rb_tree_key_compare", %"struct.std::_Rb_tree_header" }
%"class.std::map.7" = type { %"class.std::_Rb_tree.8" }
%"class.std::_Rb_tree.8" = type { %"struct.std::_Rb_tree<std::__cxx11::basic_string<char>, std::pair<const std::__cxx11::basic_string<char>, std::vector<OpenColorIO_v2_4dev::FileFormat *>>, std::_Select1st<std::pair<const std::__cxx11::basic_string<char>, std::vector<OpenColorIO_v2_4dev::FileFormat *>>>, std::less<std::__cxx11::basic_string<char>>>::_Rb_tree_impl" }
%"struct.std::_Rb_tree<std::__cxx11::basic_string<char>, std::pair<const std::__cxx11::basic_string<char>, std::vector<OpenColorIO_v2_4dev::FileFormat *>>, std::_Select1st<std::pair<const std::__cxx11::basic_string<char>, std::vector<OpenColorIO_v2_4dev::FileFormat *>>>, std::less<std::__cxx11::basic_string<char>>>::_Rb_tree_impl" = type { %"struct.std::_Rb_tree_key_compare", %"struct.std::_Rb_tree_header" }
%"class.std::vector" = type { %"struct.std::_Vector_base" }
%"struct.std::_Vector_base" = type { %"struct.std::_Vector_base<OpenColorIO_v2_4dev::FileFormat *, std::allocator<OpenColorIO_v2_4dev::FileFormat *>>::_Vector_impl" }
%"struct.std::_Vector_base<OpenColorIO_v2_4dev::FileFormat *, std::allocator<OpenColorIO_v2_4dev::FileFormat *>>::_Vector_impl" = type { %"struct.std::_Vector_base<OpenColorIO_v2_4dev::FileFormat *, std::allocator<OpenColorIO_v2_4dev::FileFormat *>>::_Vector_impl_data" }
%"struct.std::_Vector_base<OpenColorIO_v2_4dev::FileFormat *, std::allocator<OpenColorIO_v2_4dev::FileFormat *>>::_Vector_impl_data" = type { ptr, ptr, ptr }
%"class.std::vector.15" = type { %"struct.std::_Vector_base.16" }
%"struct.std::_Vector_base.16" = type { %"struct.std::_Vector_base<std::__cxx11::basic_string<char>, std::allocator<std::__cxx11::basic_string<char>>>::_Vector_impl" }
%"struct.std::_Vector_base<std::__cxx11::basic_string<char>, std::allocator<std::__cxx11::basic_string<char>>>::_Vector_impl" = type { %"struct.std::_Vector_base<std::__cxx11::basic_string<char>, std::allocator<std::__cxx11::basic_string<char>>>::_Vector_impl_data" }
%"struct.std::_Vector_base<std::__cxx11::basic_string<char>, std::allocator<std::__cxx11::basic_string<char>>>::_Vector_impl_data" = type { ptr, ptr, ptr }

; Function Attrs: mustprogress nounwind uwtable
define linkonce_odr hidden noundef i64 @_ZNKSt6vectorIPN19OpenColorIO_v2_4dev10FileFormatESaIS2_EE4sizeEv(ptr noundef nonnull align 8 dereferenceable(24) %this) #7 comdat align 2 {
entry:
  %this.addr = alloca ptr, align 8
  store ptr %this, ptr %this.addr, align 8
  %this1 = load ptr, ptr %this.addr, align 8
  %_M_impl = getelementptr inbounds %"struct.std::_Vector_base", ptr %this1, i32 0, i32 0
  %_M_finish = getelementptr inbounds %"struct.std::_Vector_base<OpenColorIO_v2_4dev::FileFormat *, std::allocator<OpenColorIO_v2_4dev::FileFormat *>>::_Vector_impl_data", ptr %_M_impl, i32 0, i32 1
  %0 = load ptr, ptr %_M_finish, align 8
  %_M_impl2 = getelementptr inbounds %"struct.std::_Vector_base", ptr %this1, i32 0, i32 0
  %_M_start = getelementptr inbounds %"struct.std::_Vector_base<OpenColorIO_v2_4dev::FileFormat *, std::allocator<OpenColorIO_v2_4dev::FileFormat *>>::_Vector_impl_data", ptr %_M_impl2, i32 0, i32 0
  %1 = load ptr, ptr %_M_start, align 8
  %sub.ptr.lhs.cast = ptrtoint ptr %0 to i64
  %sub.ptr.rhs.cast = ptrtoint ptr %1 to i64
  %sub.ptr.sub = sub i64 %sub.ptr.lhs.cast, %sub.ptr.rhs.cast
  %sub.ptr.div = sdiv exact i64 %sub.ptr.sub, 8
  ret i64 %sub.ptr.div
}

; Function Attrs: mustprogress nounwind uwtable
define linkonce_odr hidden noundef nonnull align 8 dereferenceable(8) ptr @_ZNKSt6vectorIPN19OpenColorIO_v2_4dev10FileFormatESaIS2_EEixEm(ptr noundef nonnull align 8 dereferenceable(24) %this, i64 noundef %__n) #7 comdat align 2 {
entry:
  %this.addr = alloca ptr, align 8
  %__n.addr = alloca i64, align 8
  store ptr %this, ptr %this.addr, align 8
  store i64 %__n, ptr %__n.addr, align 8
  %this1 = load ptr, ptr %this.addr, align 8
  %_M_impl = getelementptr inbounds %"struct.std::_Vector_base", ptr %this1, i32 0, i32 0
  %_M_start = getelementptr inbounds %"struct.std::_Vector_base<OpenColorIO_v2_4dev::FileFormat *, std::allocator<OpenColorIO_v2_4dev::FileFormat *>>::_Vector_impl_data", ptr %_M_impl, i32 0, i32 0
  %0 = load ptr, ptr %_M_start, align 8
  %1 = load i64, ptr %__n.addr, align 8
  %add.ptr = getelementptr inbounds ptr, ptr %0, i64 %1
  ret ptr %add.ptr
}

; Function Attrs: mustprogress nounwind uwtable
define hidden noundef i32 @_ZNK19OpenColorIO_v2_4dev14FormatRegistry16getNumRawFormatsEv(ptr noundef nonnull align 8 dereferenceable(264) %this) #7 align 2 {
entry:
  %this.addr = alloca ptr, align 8
  store ptr %this, ptr %this.addr, align 8
  %this1 = load ptr, ptr %this.addr, align 8
  %m_rawFormats = getelementptr inbounds %"class.OpenColorIO_v2_4dev::FormatRegistry", ptr %this1, i32 0, i32 2
  %call = call noundef i64 @_ZNKSt6vectorIPN19OpenColorIO_v2_4dev10FileFormatESaIS2_EE4sizeEv(ptr noundef nonnull align 8 dereferenceable(24) %m_rawFormats) #3
  %conv = trunc i64 %call to i32
  ret i32 %conv
}

; Function Attrs: mustprogress nounwind uwtable
define hidden noundef ptr @_ZNK19OpenColorIO_v2_4dev14FormatRegistry19getRawFormatByIndexEi(ptr noundef nonnull align 8 dereferenceable(264) %this, i32 noundef %index) #7 align 2 {
entry:
  %retval = alloca ptr, align 8
  %this.addr = alloca ptr, align 8
  %index.addr = alloca i32, align 4
  store ptr %this, ptr %this.addr, align 8
  store i32 %index, ptr %index.addr, align 4
  %this1 = load ptr, ptr %this.addr, align 8
  %0 = load i32, ptr %index.addr, align 4
  %cmp = icmp slt i32 %0, 0
  br i1 %cmp, label %if.then, label %lor.lhs.false

lor.lhs.false:                                    ; preds = %entry
  %1 = load i32, ptr %index.addr, align 4
  %call = call noundef i32 @_ZNK19OpenColorIO_v2_4dev14FormatRegistry16getNumRawFormatsEv(ptr noundef nonnull align 8 dereferenceable(264) %this1)
  %cmp2 = icmp sge i32 %1, %call
  br i1 %cmp2, label %if.then, label %if.end

if.then:                                          ; preds = %lor.lhs.false, %entry
  store ptr null, ptr %retval, align 8
  br label %return

if.end:                                           ; preds = %lor.lhs.false
  %m_rawFormats = getelementptr inbounds %"class.OpenColorIO_v2_4dev::FormatRegistry", ptr %this1, i32 0, i32 2
  %2 = load i32, ptr %index.addr, align 4
  %conv = sext i32 %2 to i64
  %call3 = call noundef nonnull align 8 dereferenceable(8) ptr @_ZNKSt6vectorIPN19OpenColorIO_v2_4dev10FileFormatESaIS2_EEixEm(ptr noundef nonnull align 8 dereferenceable(24) %m_rawFormats, i64 noundef %conv) #3
  %3 = load ptr, ptr %call3, align 8
  store ptr %3, ptr %retval, align 8
  br label %return

return:                                           ; preds = %if.end, %if.then
  %4 = load ptr, ptr %retval, align 8
  ret ptr %4
}