; Function Attrs: mustprogress nofree norecurse nosync nounwind willreturn memory(read, inaccessiblemem: none) uwtable
define hidden noundef ptr @_ZNK19OpenColorIO_v2_4dev14FormatRegistry19getRawFormatByIndexEi(ptr nocapture noundef nonnull readonly align 8 dereferenceable(264) %this, i32 noundef %index) local_unnamed_addr #7 align 2 {
entry:
  %cmp = icmp slt i32 %index, 0
  br i1 %cmp, label %return, label %lor.lhs.false

lor.lhs.false:                                    ; preds = %entry
  %m_rawFormats.i = getelementptr inbounds i8, ptr %this, i64 96
  %_M_finish.i.i = getelementptr inbounds i8, ptr %this, i64 104
  %0 = load ptr, ptr %_M_finish.i.i, align 8
  %1 = load ptr, ptr %m_rawFormats.i, align 8
  %sub.ptr.lhs.cast.i.i = ptrtoint ptr %0 to i64
  %sub.ptr.rhs.cast.i.i = ptrtoint ptr %1 to i64
  %sub.ptr.sub.i.i = sub i64 %sub.ptr.lhs.cast.i.i, %sub.ptr.rhs.cast.i.i
  %sub.ptr.div.i.i = lshr exact i64 %sub.ptr.sub.i.i, 3
  %conv.i = trunc i64 %sub.ptr.div.i.i to i32
  %cmp2.not = icmp sgt i32 %conv.i, %index
  br i1 %cmp2.not, label %if.end, label %return

if.end:                                           ; preds = %lor.lhs.false
  %conv = zext nneg i32 %index to i64
  %add.ptr.i = getelementptr inbounds ptr, ptr %1, i64 %conv
  %2 = load ptr, ptr %add.ptr.i, align 8
  br label %return

return:                                           ; preds = %entry, %lor.lhs.false, %if.end
  %retval.0 = phi ptr [ %2, %if.end ], [ null, %lor.lhs.false ], [ null, %entry ]
  ret ptr %retval.0
}